; Function Attrs: mustprogress nofree norecurse nosync nounwind willreturn memory(argmem: read) uwtable
define noundef zeroext i1 @_Z17isMainSimMainRankPK14gmx_multisim_tb(ptr noundef readonly %0, i1 noundef zeroext %1) local_unnamed_addr #14 {
  br i1 %1, label %3, label %_Z9isMainSimPK14gmx_multisim_t.exit

3:                                                ; preds = %2
  %.not.i = icmp eq ptr %0, null
  br i1 %.not.i, label %_Z9isMainSimPK14gmx_multisim_t.exit, label %4

4:                                                ; preds = %3
  %5 = getelementptr inbounds i8, ptr %0, i64 4
  %6 = load i32, ptr %5, align 4
  %7 = icmp eq i32 %6, 0
  br label %_Z9isMainSimPK14gmx_multisim_t.exit

_Z9isMainSimPK14gmx_multisim_t.exit:              ; preds = %4, %3, %2
  %8 = phi i1 [ false, %2 ], [ true, %3 ], [ %7, %4 ]
  ret i1 %8
}